; Function Attrs: nounwind uwtable
define dso_local void @Curl_pp_init(ptr noundef initializes((0, 9), (40, 52)) %0) local_unnamed_addr #0 {
  store i64 0, ptr %0, align 8, !tbaa !86
  %2 = getelementptr inbounds nuw i8, ptr %0, i64 40
  %3 = tail call { i64, i32 } @Curl_now() #10
  %4 = extractvalue { i64, i32 } %3, 0
  %5 = extractvalue { i64, i32 } %3, 1
  store i64 %4, ptr %2, align 8, !tbaa !87
  %.sroa.4.0..sroa_idx = getelementptr inbounds nuw i8, ptr %0, i64 48
  store i32 %5, ptr %.sroa.4.0..sroa_idx, align 8, !tbaa !82
  %6 = getelementptr inbounds nuw i8, ptr %0, i64 8
  store i8 1, ptr %6, align 8, !tbaa !88
  %7 = getelementptr inbounds nuw i8, ptr %0, i64 64
  tail call void @Curl_dyn_init(ptr noundef nonnull %7, i64 noundef 65536) #10
  %8 = getelementptr inbounds nuw i8, ptr %0, i64 96
  tail call void @Curl_dyn_init(ptr noundef nonnull %8, i64 noundef 65536) #10
  ret void
}